target datalayout = "e-m:e-p270:32:32-p271:32:32-p272:64:64-i64:64-i128:128-f80:128-n8:16:32:64-S128"
target triple = "x86_64-pc-linux-gnu"

%struct.Vec_Int_t_ = type { i32, i32, ptr }
%struct.Vec_Wec_t_ = type { i32, i32, ptr }

; Function Attrs: inlinehint nounwind uwtable
define internal void @Vec_IntClear(ptr noundef %0) #1 {
  %2 = alloca ptr, align 8
  store ptr %0, ptr %2, align 8, !tbaa !10
  %3 = load ptr, ptr %2, align 8, !tbaa !10
  %4 = getelementptr inbounds nuw %struct.Vec_Int_t_, ptr %3, i32 0, i32 1
  store i32 0, ptr %4, align 4, !tbaa !42
  ret void
}

; Function Attrs: inlinehint nounwind uwtable
define internal ptr @Vec_WecEntry(ptr noundef %0, i32 noundef %1) #1 {
  %3 = alloca ptr, align 8
  %4 = alloca i32, align 4
  store ptr %0, ptr %3, align 8, !tbaa !33
  store i32 %1, ptr %4, align 4, !tbaa !12
  %5 = load ptr, ptr %3, align 8, !tbaa !33
  %6 = getelementptr inbounds nuw %struct.Vec_Wec_t_, ptr %5, i32 0, i32 2
  %7 = load ptr, ptr %6, align 8, !tbaa !41
  %8 = load i32, ptr %4, align 4, !tbaa !12
  %9 = sext i32 %8 to i64
  %10 = getelementptr inbounds %struct.Vec_Int_t_, ptr %7, i64 %9
  ret ptr %10
}

; Function Attrs: inlinehint nounwind uwtable
define internal i32 @Vec_IntEntry(ptr noundef %0, i32 noundef %1) #1 {
  %3 = alloca ptr, align 8
  %4 = alloca i32, align 4
  store ptr %0, ptr %3, align 8, !tbaa !10
  store i32 %1, ptr %4, align 4, !tbaa !12
  %5 = load ptr, ptr %3, align 8, !tbaa !10
  %6 = getelementptr inbounds nuw %struct.Vec_Int_t_, ptr %5, i32 0, i32 2
  %7 = load ptr, ptr %6, align 8, !tbaa !44
  %8 = load i32, ptr %4, align 4, !tbaa !12
  %9 = sext i32 %8 to i64
  %10 = getelementptr inbounds i32, ptr %7, i64 %9
  %11 = load i32, ptr %10, align 4, !tbaa !12
  ret i32 %11
}

; Function Attrs: inlinehint nounwind uwtable
define internal i32 @Vec_IntSize(ptr noundef %0) #1 {
  %2 = alloca ptr, align 8
  store ptr %0, ptr %2, align 8, !tbaa !10
  %3 = load ptr, ptr %2, align 8, !tbaa !10
  %4 = getelementptr inbounds nuw %struct.Vec_Int_t_, ptr %3, i32 0, i32 1
  %5 = load i32, ptr %4, align 4, !tbaa !42
  ret i32 %5
}

; Function Attrs: nounwind uwtable
define i32 @Gia_ManMulFindNextEntry(ptr noundef %0, ptr noundef %1, i32 noundef %2) #0 {
  %4 = alloca i32, align 4
  %5 = alloca ptr, align 8
  %6 = alloca ptr, align 8
  %7 = alloca i32, align 4
  %8 = alloca i32, align 4
  %9 = alloca i32, align 4
  %10 = alloca ptr, align 8
  %11 = alloca i32, align 4
  %12 = alloca i32, align 4
  store ptr %0, ptr %5, align 8, !tbaa !33
  store ptr %1, ptr %6, align 8, !tbaa !10
  store i32 %2, ptr %7, align 4, !tbaa !12
  call void @llvm.lifetime.start.p0(i64 4, ptr %8) #10
  call void @llvm.lifetime.start.p0(i64 4, ptr %9) #10
  store i32 0, ptr %8, align 4, !tbaa !12
  br label %13

13:                                               ; preds = %58, %3
  %14 = load i32, ptr %8, align 4, !tbaa !12
  %15 = load ptr, ptr %6, align 8, !tbaa !10
  %16 = call i32 @Vec_IntSize(ptr noundef %15)
  %17 = icmp slt i32 %14, %16
  br i1 %17, label %18, label %22

18:                                               ; preds = %13
  %19 = load ptr, ptr %6, align 8, !tbaa !10
  %20 = load i32, ptr %8, align 4, !tbaa !12
  %21 = call i32 @Vec_IntEntry(ptr noundef %19, i32 noundef %20)
  store i32 %21, ptr %9, align 4, !tbaa !12
  br label %22

22:                                               ; preds = %18, %13
  %23 = phi i1 [ false, %13 ], [ true, %18 ]
  br i1 %23, label %24, label %61

24:                                               ; preds = %22
  call void @llvm.lifetime.start.p0(i64 8, ptr %10) #10
  %25 = load ptr, ptr %5, align 8, !tbaa !33
  %26 = load i32, ptr %9, align 4, !tbaa !12
  %27 = call ptr @Vec_WecEntry(ptr noundef %25, i32 noundef %26)
  store ptr %27, ptr %10, align 8, !tbaa !10
  %28 = load ptr, ptr %10, align 8, !tbaa !10
  %29 = call i32 @Vec_IntSize(ptr noundef %28)
  %30 = icmp eq i32 %29, 0
  br i1 %30, label %31, label %32

31:                                               ; preds = %24
  store i32 4, ptr %11, align 4
  br label %56

32:                                               ; preds = %24
  call void @llvm.lifetime.start.p0(i64 4, ptr %12) #10
  store i32 -1, ptr %12, align 4, !tbaa !12
  %33 = load ptr, ptr %10, align 8, !tbaa !10
  %34 = call i32 @Vec_IntEntry(ptr noundef %33, i32 noundef 1)
  %35 = load i32, ptr %7, align 4, !tbaa !12
  %36 = icmp eq i32 %34, %35
  br i1 %36, label %37, label %40

37:                                               ; preds = %32
  %38 = load ptr, ptr %10, align 8, !tbaa !10
  %39 = call i32 @Vec_IntEntry(ptr noundef %38, i32 noundef 2)
  store i32 %39, ptr %12, align 4, !tbaa !12
  br label %40

40:                                               ; preds = %37, %32
  %41 = load ptr, ptr %10, align 8, !tbaa !10
  %42 = call i32 @Vec_IntEntry(ptr noundef %41, i32 noundef 2)
  %43 = load i32, ptr %7, align 4, !tbaa !12
  %44 = icmp eq i32 %42, %43
  br i1 %44, label %45, label %48

45:                                               ; preds = %40
  %46 = load ptr, ptr %10, align 8, !tbaa !10
  %47 = call i32 @Vec_IntEntry(ptr noundef %46, i32 noundef 1)
  store i32 %47, ptr %12, align 4, !tbaa !12
  br label %48

48:                                               ; preds = %45, %40
  %49 = load i32, ptr %12, align 4, !tbaa !12
  %50 = icmp eq i32 %49, -1
  br i1 %50, label %51, label %52

51:                                               ; preds = %48
  store i32 4, ptr %11, align 4
  br label %55

52:                                               ; preds = %48
  %53 = load ptr, ptr %10, align 8, !tbaa !10
  call void @Vec_IntClear(ptr noundef %53)
  %54 = load i32, ptr %12, align 4, !tbaa !12
  store i32 %54, ptr %4, align 4
  store i32 1, ptr %11, align 4
  br label %55

55:                                               ; preds = %52, %51
  call void @llvm.lifetime.end.p0(i64 4, ptr %12) #10
  br label %56

56:                                               ; preds = %55, %31
  call void @llvm.lifetime.end.p0(i64 8, ptr %10) #10
  %57 = load i32, ptr %11, align 4
  switch i32 %57, label %62 [
    i32 4, label %58
  ]

58:                                               ; preds = %56
  %59 = load i32, ptr %8, align 4, !tbaa !12
  %60 = add nsw i32 %59, 1
  store i32 %60, ptr %8, align 4, !tbaa !12
  br label %13, !llvm.loop !72

61:                                               ; preds = %22
  store i32 -1, ptr %4, align 4
  store i32 1, ptr %11, align 4
  br label %62

62:                                               ; preds = %61, %56
  call void @llvm.lifetime.end.p0(i64 4, ptr %9) #10
  call void @llvm.lifetime.end.p0(i64 4, ptr %8) #10
  %63 = load i32, ptr %4, align 4
  ret i32 %63
}