; Function Attrs: nofree norecurse nosync nounwind memory(readwrite, inaccessiblemem: none) uwtable
define i32 @Gia_ManMulFindNextEntry(ptr noundef readonly captures(none) %0, ptr noundef readonly captures(none) %1, i32 noundef %2) local_unnamed_addr #6 {
  %4 = getelementptr i8, ptr %1, i64 4
  %.val23 = load i32, ptr %4, align 4, !tbaa !33
  %5 = icmp sgt i32 %.val23, 0
  br i1 %5, label %.lr.ph, label %.critedge

.lr.ph:                                           ; preds = %3
  %6 = getelementptr i8, ptr %1, i64 8
  %.val28 = load ptr, ptr %6, align 8, !tbaa !35
  %7 = getelementptr i8, ptr %0, i64 8
  %.val29 = load ptr, ptr %7, align 8, !tbaa !39
  %wide.trip.count = zext nneg i32 %.val23 to i64
  br label %8

8:                                                ; preds = %.lr.ph, %26
  %indvars.iv = phi i64 [ 0, %.lr.ph ], [ %indvars.iv.next, %26 ]
  %9 = getelementptr inbounds nuw i32, ptr %.val28, i64 %indvars.iv
  %10 = load i32, ptr %9, align 4, !tbaa !29
  %11 = sext i32 %10 to i64
  %12 = getelementptr inbounds %struct.Vec_Int_t_, ptr %.val29, i64 %11
  %13 = getelementptr i8, ptr %12, i64 4
  %.val = load i32, ptr %13, align 4, !tbaa !33
  %14 = icmp eq i32 %.val, 0
  br i1 %14, label %26, label %15

15:                                               ; preds = %8
  %16 = getelementptr i8, ptr %12, i64 8
  %.val27 = load ptr, ptr %16, align 8, !tbaa !35
  %17 = getelementptr inbounds nuw i8, ptr %.val27, i64 4
  %18 = load i32, ptr %17, align 4, !tbaa !29
  %19 = icmp eq i32 %18, %2
  %20 = getelementptr inbounds nuw i8, ptr %.val27, i64 8
  %21 = load i32, ptr %20, align 4, !tbaa !29
  %. = select i1 %19, i32 %21, i32 -1
  %22 = icmp eq i32 %21, %2
  %spec.select = select i1 %22, i32 %18, i32 %.
  %23 = icmp eq i32 %spec.select, -1
  br i1 %23, label %26, label %24

24:                                               ; preds = %15
  %25 = getelementptr i8, ptr %12, i64 4
  store i32 0, ptr %25, align 4, !tbaa !33
  br label %.critedge

26:                                               ; preds = %8, %15
  %indvars.iv.next = add nuw nsw i64 %indvars.iv, 1
  %exitcond.not = icmp eq i64 %indvars.iv.next, %wide.trip.count
  br i1 %exitcond.not, label %.critedge, label %8, !llvm.loop !71

.critedge:                                        ; preds = %26, %3, %24
  %.3 = phi i32 [ %spec.select, %24 ], [ -1, %3 ], [ -1, %26 ]
  ret i32 %.3
}